target datalayout = "e-m:e-p270:32:32-p271:32:32-p272:64:64-i64:64-i128:128-f80:128-n8:16:32:64-S128"
target triple = "x86_64-pc-linux-gnu"

%struct.darktable_t = type { %struct.dt_codepath_t, i32, i32, ptr, ptr, ptr, ptr, ptr, ptr, ptr, ptr, ptr, ptr, ptr, ptr, ptr, ptr, ptr, ptr, ptr, ptr, ptr, ptr, ptr, ptr, ptr, ptr, ptr, ptr, ptr, [64 x %struct.dt_pthread_mutex_t], %struct.dt_pthread_mutex_t, %struct.dt_pthread_mutex_t, %struct.dt_pthread_mutex_t, %struct.dt_pthread_mutex_t, %struct.dt_pthread_mutex_t, ptr, ptr, ptr, ptr, ptr, ptr, ptr, ptr, ptr, ptr, ptr, ptr, ptr, %struct.dt_lua_state_t, ptr, double, ptr, i32, [47 x i32], i32, i32, ptr, ptr, %struct.dt_sys_resources_t, %struct.dt_backthumb_t, %struct.dt_gimp_t }
%struct.dt_codepath_t = type { i8, [3 x i8] }
%struct.dt_pthread_mutex_t = type { %union.pthread_mutex_t }
%union.pthread_mutex_t = type { %struct.__pthread_mutex_s }
%struct.__pthread_mutex_s = type { i32, i32, i32, i32, i32, i16, i16, %struct.__pthread_internal_list }
%struct.__pthread_internal_list = type { ptr, ptr }
%struct.dt_lua_state_t = type { i32 }
%struct.dt_sys_resources_t = type { i64, i64, ptr, ptr, i32 }
%struct.dt_backthumb_t = type { double, double, i32, i32, i32, i32 }
%struct.dt_gimp_t = type { i32, ptr, ptr, i32, i32 }
%struct.dt_view_manager_t = type { ptr, ptr, ptr, %struct.dt_history_copy_item_t, %struct.anon, %struct.dt_act_on_cache_t, %struct.dt_act_on_cache_t, %struct.anon.0, %struct.anon.1, ptr, ptr, ptr, ptr, ptr, %struct.anon.2 }
%struct.dt_history_copy_item_t = type { ptr, ptr, i32, i32, i32 }
%struct.anon = type { ptr, ptr, ptr, i32, i32 }
%struct.dt_act_on_cache_t = type { ptr, i32, i32, i32, i32, ptr, i32, i32 }
%struct.anon.0 = type { ptr, ptr, ptr, ptr, ptr, ptr }
%struct.anon.1 = type { i32, i32, i32 }
%struct.anon.2 = type { %struct.anon.3, %struct.anon.4, %struct.anon.5, %struct.anon.6, %struct.anon.7, %struct.anon.8, %struct.anon.9, %struct.anon.10, %struct.anon.11, %struct.anon.12, %struct.anon.13, %struct.anon.14 }
%struct.anon.3 = type { ptr, ptr }
%struct.anon.4 = type { ptr, ptr }
%struct.anon.5 = type { ptr, ptr, ptr, ptr }
%struct.anon.6 = type { ptr, ptr }
%struct.anon.7 = type { ptr }
%struct.anon.8 = type { ptr, ptr, ptr, ptr, ptr }
%struct.anon.9 = type { ptr }
%struct.anon.10 = type { ptr, ptr }
%struct.anon.11 = type { ptr, ptr, ptr, ptr, ptr, ptr, ptr, ptr, ptr, ptr, ptr, ptr }
%struct.anon.12 = type { ptr, ptr, ptr, ptr }
%struct.anon.13 = type { ptr }
%struct.anon.14 = type { ptr, ptr }

@darktable = external global %struct.darktable_t, align 8

; Function Attrs: nounwind uwtable
define i32 @dt_act_on_get_images_nb(i32 noundef %0, i32 noundef %1) #0 {
  %3 = alloca i32, align 4
  %4 = alloca i32, align 4
  %5 = alloca i32, align 4
  %6 = alloca ptr, align 8
  %7 = alloca i32, align 4
  store i32 %0, ptr %4, align 4, !tbaa !6
  store i32 %1, ptr %5, align 4, !tbaa !6
  %8 = load i32, ptr %5, align 4, !tbaa !6
  %9 = icmp ne i32 %8, 0
  br i1 %9, label %31, label %10

10:                                               ; preds = %2
  call void @llvm.lifetime.start.p0(i64 8, ptr %6) #6
  %11 = load i32, ptr %4, align 4, !tbaa !6
  %12 = icmp ne i32 %11, 0
  br i1 %12, label %13, label %16

13:                                               ; preds = %10
  %14 = load ptr, ptr getelementptr inbounds nuw (%struct.darktable_t, ptr @darktable, i32 0, i32 11), align 8, !tbaa !10
  %15 = getelementptr inbounds nuw %struct.dt_view_manager_t, ptr %14, i32 0, i32 6
  store ptr %15, ptr %6, align 8, !tbaa !49
  br label %19

16:                                               ; preds = %10
  %17 = load ptr, ptr getelementptr inbounds nuw (%struct.darktable_t, ptr @darktable, i32 0, i32 11), align 8, !tbaa !10
  %18 = getelementptr inbounds nuw %struct.dt_view_manager_t, ptr %17, i32 0, i32 5
  store ptr %18, ptr %6, align 8, !tbaa !49
  br label %19

19:                                               ; preds = %16, %13
  %20 = load ptr, ptr %6, align 8, !tbaa !49
  %21 = call i32 @_test_cache(ptr noundef %20)
  %22 = icmp ne i32 %21, 0
  br i1 %22, label %23, label %27

23:                                               ; preds = %19
  %24 = load ptr, ptr %6, align 8, !tbaa !49
  %25 = getelementptr inbounds nuw %struct.dt_act_on_cache_t, ptr %24, i32 0, i32 1
  %26 = load i32, ptr %25, align 8, !tbaa !102
  store i32 %26, ptr %3, align 4
  store i32 1, ptr %7, align 4
  br label %28

27:                                               ; preds = %19
  store i32 0, ptr %7, align 4
  br label %28

28:                                               ; preds = %27, %23
  call void @llvm.lifetime.end.p0(i64 8, ptr %6) #6
  %29 = load i32, ptr %7, align 4
  switch i32 %29, label %65 [
    i32 0, label %30
    i32 1, label %63
  ]

30:                                               ; preds = %28
  br label %31

31:                                               ; preds = %30, %2
  %32 = load i32, ptr %4, align 4, !tbaa !6
  %33 = load i32, ptr %5, align 4, !tbaa !6
  %34 = call i32 @_cache_update(i32 noundef %32, i32 noundef %33, i32 noundef 0)
  %35 = load i32, ptr %4, align 4, !tbaa !6
  %36 = icmp ne i32 %35, 0
  br i1 %36, label %37, label %48

37:                                               ; preds = %31
  %38 = load ptr, ptr getelementptr inbounds nuw (%struct.darktable_t, ptr @darktable, i32 0, i32 11), align 8, !tbaa !10
  %39 = getelementptr inbounds nuw %struct.dt_view_manager_t, ptr %38, i32 0, i32 6
  %40 = getelementptr inbounds nuw %struct.dt_act_on_cache_t, ptr %39, i32 0, i32 2
  %41 = load i32, ptr %40, align 4, !tbaa !124
  %42 = icmp ne i32 %41, 0
  br i1 %42, label %43, label %48

43:                                               ; preds = %37
  %44 = load ptr, ptr getelementptr inbounds nuw (%struct.darktable_t, ptr @darktable, i32 0, i32 11), align 8, !tbaa !10
  %45 = getelementptr inbounds nuw %struct.dt_view_manager_t, ptr %44, i32 0, i32 6
  %46 = getelementptr inbounds nuw %struct.dt_act_on_cache_t, ptr %45, i32 0, i32 1
  %47 = load i32, ptr %46, align 8, !tbaa !129
  store i32 %47, ptr %3, align 4
  br label %63

48:                                               ; preds = %37, %31
  %49 = load i32, ptr %4, align 4, !tbaa !6
  %50 = icmp ne i32 %49, 0
  br i1 %50, label %62, label %51

51:                                               ; preds = %48
  %52 = load ptr, ptr getelementptr inbounds nuw (%struct.darktable_t, ptr @darktable, i32 0, i32 11), align 8, !tbaa !10
  %53 = getelementptr inbounds nuw %struct.dt_view_manager_t, ptr %52, i32 0, i32 5
  %54 = getelementptr inbounds nuw %struct.dt_act_on_cache_t, ptr %53, i32 0, i32 2
  %55 = load i32, ptr %54, align 4, !tbaa !126
  %56 = icmp ne i32 %55, 0
  br i1 %56, label %57, label %62

57:                                               ; preds = %51
  %58 = load ptr, ptr getelementptr inbounds nuw (%struct.darktable_t, ptr @darktable, i32 0, i32 11), align 8, !tbaa !10
  %59 = getelementptr inbounds nuw %struct.dt_view_manager_t, ptr %58, i32 0, i32 5
  %60 = getelementptr inbounds nuw %struct.dt_act_on_cache_t, ptr %59, i32 0, i32 1
  %61 = load i32, ptr %60, align 8, !tbaa !130
  store i32 %61, ptr %3, align 4
  br label %63

62:                                               ; preds = %51, %48
  store i32 0, ptr %3, align 4
  br label %63

63:                                               ; preds = %62, %57, %43, %28
  %64 = load i32, ptr %3, align 4
  ret i32 %64

65:                                               ; preds = %28
  unreachable
}