; Function Attrs: nounwind uwtable
define i32 @dt_act_on_get_images_nb(i32 noundef %0, i32 noundef %1) local_unnamed_addr #0 {
  %.not = icmp eq i32 %1, 0
  br i1 %.not, label %3, label %.split

3:                                                ; preds = %2
  %.not14 = icmp eq i32 %0, 0
  %4 = load ptr, ptr getelementptr inbounds nuw (i8, ptr @darktable, i64 80), align 8
  %.09.v = select i1 %.not14, i64 88, i64 128
  %.09 = getelementptr inbounds nuw i8, ptr %4, i64 %.09.v
  %5 = tail call fastcc i32 @_test_cache(ptr noundef nonnull %.09)
  %.not15.not = icmp eq i32 %5, 0
  br i1 %.not15.not, label %.split, label %6

6:                                                ; preds = %3
  %7 = getelementptr inbounds nuw i8, ptr %.09, i64 8
  %8 = load i32, ptr %7, align 8, !tbaa !97
  br label %22

.split:                                           ; preds = %3, %2
  %.sink = phi i32 [ %1, %2 ], [ 0, %3 ]
  %9 = tail call i32 @_cache_update(i32 noundef %0, i32 noundef %.sink, i32 noundef 0)
  %.not16 = icmp eq i32 %0, 0
  %10 = load ptr, ptr getelementptr inbounds nuw (i8, ptr @darktable, i64 80), align 8, !tbaa !74
  br i1 %.not16, label %.critedge, label %11

11:                                               ; preds = %.split
  %12 = getelementptr inbounds nuw i8, ptr %10, i64 140
  %13 = load i32, ptr %12, align 4, !tbaa !116
  %.not17 = icmp eq i32 %13, 0
  br i1 %.not17, label %22, label %14

14:                                               ; preds = %11
  %15 = getelementptr inbounds nuw i8, ptr %10, i64 136
  %16 = load i32, ptr %15, align 8, !tbaa !120
  br label %22

.critedge:                                        ; preds = %.split
  %17 = getelementptr inbounds nuw i8, ptr %10, i64 100
  %18 = load i32, ptr %17, align 4, !tbaa !117
  %.not18 = icmp eq i32 %18, 0
  br i1 %.not18, label %22, label %19

19:                                               ; preds = %.critedge
  %20 = getelementptr inbounds nuw i8, ptr %10, i64 96
  %21 = load i32, ptr %20, align 8, !tbaa !121
  br label %22

22:                                               ; preds = %11, %6, %.critedge, %19, %14
  %.1 = phi i32 [ %16, %14 ], [ %21, %19 ], [ %8, %6 ], [ 0, %.critedge ], [ 0, %11 ]
  ret i32 %.1
}